; Function Attrs: mustprogress nofree norecurse nosync nounwind willreturn memory(read, argmem: readwrite, inaccessiblemem: none) uwtable
define dso_local ptr @ExecGetResultSlotOps(ptr noundef readonly captures(none) %0, ptr noundef writeonly captures(address_is_null) %1) local_unnamed_addr #4 {
  %3 = getelementptr inbounds nuw i8, ptr %0, i64 199
  %4 = load i8, ptr %3, align 1, !range !8, !noundef !9
  %5 = trunc nuw i8 %4 to i1
  br i1 %5, label %6, label %.thread

6:                                                ; preds = %2
  %7 = getelementptr inbounds nuw i8, ptr %0, i64 184
  %8 = load ptr, ptr %7, align 8
  %.not = icmp eq ptr %8, null
  %.not20 = icmp eq ptr %1, null
  br i1 %.not, label %13, label %9

9:                                                ; preds = %6
  br i1 %.not20, label %32, label %10

10:                                               ; preds = %9
  %11 = getelementptr inbounds nuw i8, ptr %0, i64 195
  %12 = load i8, ptr %11, align 1, !range !8, !noundef !9
  store i8 %12, ptr %1, align 1
  %.pre = load ptr, ptr %7, align 8
  br label %32

13:                                               ; preds = %6
  br i1 %.not20, label %26, label %14

.thread:                                          ; preds = %2
  %.not2024 = icmp eq ptr %1, null
  br i1 %.not2024, label %26, label %17

14:                                               ; preds = %13
  %15 = getelementptr inbounds nuw i8, ptr %0, i64 195
  %16 = load i8, ptr %15, align 1, !range !8, !noundef !9
  br label %.sink.split

17:                                               ; preds = %.thread
  %18 = getelementptr inbounds nuw i8, ptr %0, i64 120
  %19 = load ptr, ptr %18, align 8
  %.not21 = icmp eq ptr %19, null
  br i1 %.not21, label %.sink.split, label %20

20:                                               ; preds = %17
  %21 = getelementptr inbounds nuw i8, ptr %19, i64 4
  %22 = load i16, ptr %21, align 4
  %23 = trunc i16 %22 to i8
  %24 = lshr i8 %23, 4
  %25 = and i8 %24, 1
  br label %.sink.split

.sink.split:                                      ; preds = %17, %20, %14
  %.sink = phi i8 [ %16, %14 ], [ %25, %20 ], [ 0, %17 ]
  store i8 %.sink, ptr %1, align 1
  br label %26

26:                                               ; preds = %.sink.split, %.thread, %13
  %27 = getelementptr inbounds nuw i8, ptr %0, i64 120
  %28 = load ptr, ptr %27, align 8
  %.not22 = icmp eq ptr %28, null
  br i1 %.not22, label %32, label %29

29:                                               ; preds = %26
  %30 = getelementptr inbounds nuw i8, ptr %28, i64 8
  %31 = load ptr, ptr %30, align 8
  br label %32

32:                                               ; preds = %9, %10, %26, %29
  %.0 = phi ptr [ %31, %29 ], [ @TTSOpsVirtual, %26 ], [ %.pre, %10 ], [ %8, %9 ]
  ret ptr %.0
}